; Function Attrs: nounwind uwtable
define i32 @Abc_NtkLogicMakeSimpleCos2(ptr noundef captures(none) %0, i32 noundef %1) local_unnamed_addr #0 {
  %3 = getelementptr inbounds nuw i8, ptr %0, i64 232
  %4 = load ptr, ptr %3, align 8
  %.not.i = icmp eq ptr %4, null
  br i1 %.not.i, label %5, label %Abc_NtkIncrementTravId.exit

5:                                                ; preds = %2
  %6 = getelementptr inbounds nuw i8, ptr %0, i64 224
  %7 = getelementptr i8, ptr %0, i64 32
  %.val.i = load ptr, ptr %7, align 8
  %8 = getelementptr i8, ptr %.val.i, i64 4
  %.val.val.i = load i32, ptr %8, align 4
  %9 = add nsw i32 %.val.val.i, 500
  %10 = load i32, ptr %6, align 8
  %.not.i.i.i = icmp slt i32 %10, %9
  br i1 %.not.i.i.i, label %11, label %Vec_IntGrow.exit.i.i

11:                                               ; preds = %5
  %12 = sext i32 %9 to i64
  %13 = shl nsw i64 %12, 2
  %14 = tail call noalias ptr @malloc(i64 noundef %13) #30
  store ptr %14, ptr %3, align 8
  store i32 %9, ptr %6, align 8
  br label %Vec_IntGrow.exit.i.i

Vec_IntGrow.exit.i.i:                             ; preds = %11, %5
  %15 = icmp sgt i32 %.val.val.i, -500
  br i1 %15, label %.lr.ph.i.i, label %Vec_IntFill.exit.i

.lr.ph.i.i:                                       ; preds = %Vec_IntGrow.exit.i.i
  %wide.trip.count.i.i = zext nneg i32 %9 to i64
  br label %16

16:                                               ; preds = %16, %.lr.ph.i.i
  %indvars.iv.i.i = phi i64 [ 0, %.lr.ph.i.i ], [ %indvars.iv.next.i.i, %16 ]
  %17 = load ptr, ptr %3, align 8
  %18 = getelementptr inbounds nuw i32, ptr %17, i64 %indvars.iv.i.i
  store i32 0, ptr %18, align 4
  %indvars.iv.next.i.i = add nuw nsw i64 %indvars.iv.i.i, 1
  %exitcond.not.i.i = icmp eq i64 %indvars.iv.next.i.i, %wide.trip.count.i.i
  br i1 %exitcond.not.i.i, label %Vec_IntFill.exit.i, label %16, !llvm.loop !50

Vec_IntFill.exit.i:                               ; preds = %16, %Vec_IntGrow.exit.i.i
  %19 = getelementptr inbounds nuw i8, ptr %0, i64 228
  store i32 %9, ptr %19, align 4
  br label %Abc_NtkIncrementTravId.exit

Abc_NtkIncrementTravId.exit:                      ; preds = %2, %Vec_IntFill.exit.i
  %20 = getelementptr inbounds nuw i8, ptr %0, i64 216
  %21 = load i32, ptr %20, align 8
  %22 = add nsw i32 %21, 1
  store i32 %22, ptr %20, align 8
  %23 = getelementptr i8, ptr %0, i64 64
  %.val3746 = load ptr, ptr %23, align 8
  %24 = getelementptr i8, ptr %.val3746, i64 4
  %.val37.val47 = load i32, ptr %24, align 4
  %25 = icmp sgt i32 %.val37.val47, 0
  br i1 %25, label %.lr.ph, label %.critedge

.lr.ph:                                           ; preds = %Abc_NtkIncrementTravId.exit, %75
  %indvars.iv = phi i64 [ %indvars.iv.next, %75 ], [ 0, %Abc_NtkIncrementTravId.exit ]
  %.val3750 = phi ptr [ %.val37, %75 ], [ %.val3746, %Abc_NtkIncrementTravId.exit ]
  %.049 = phi i32 [ %.1, %75 ], [ 0, %Abc_NtkIncrementTravId.exit ]
  %26 = getelementptr i8, ptr %.val3750, i64 8
  %.val38.val = load ptr, ptr %26, align 8
  %27 = getelementptr inbounds nuw ptr, ptr %.val38.val, i64 %indvars.iv
  %28 = load ptr, ptr %27, align 8
  %.val34 = load ptr, ptr %28, align 8
  %29 = getelementptr i8, ptr %28, i64 32
  %.val35 = load ptr, ptr %29, align 8
  %30 = getelementptr i8, ptr %.val34, i64 32
  %.val34.val = load ptr, ptr %30, align 8
  %.val35.val = load i32, ptr %.val35, align 4
  %31 = getelementptr i8, ptr %.val34.val, i64 8
  %.val34.val.val = load ptr, ptr %31, align 8
  %32 = sext i32 %.val35.val to i64
  %33 = getelementptr inbounds ptr, ptr %.val34.val.val, i64 %32
  %34 = load ptr, ptr %33, align 8
  %35 = getelementptr i8, ptr %28, i64 20
  %.val = load i32, ptr %35, align 4
  %36 = and i32 %.val, 1024
  %.not = icmp eq i32 %36, 0
  br i1 %.not, label %39, label %37

37:                                               ; preds = %.lr.ph
  tail call void @Abc_NtkFixCoDriverProblem(ptr noundef %34, ptr noundef nonnull %28, i32 noundef %1)
  %38 = add nsw i32 %.049, 1
  br label %75

39:                                               ; preds = %.lr.ph
  %40 = getelementptr i8, ptr %34, i64 20
  %.val36 = load i32, ptr %40, align 4
  %41 = and i32 %.val36, 15
  switch i32 %41, label %48 [
    i32 5, label %42
    i32 2, label %42
  ]

42:                                               ; preds = %39, %39
  %43 = tail call ptr @Abc_ObjName(ptr noundef nonnull %34) #28
  %44 = tail call ptr @Abc_ObjName(ptr noundef nonnull %28) #28
  %45 = tail call i32 @strcmp(ptr noundef nonnull dereferenceable(1) %43, ptr noundef nonnull dereferenceable(1) %44) #31
  %.not31 = icmp eq i32 %45, 0
  br i1 %.not31, label %48, label %46

46:                                               ; preds = %42
  tail call void @Abc_NtkFixCoDriverProblem(ptr noundef nonnull %34, ptr noundef nonnull %28, i32 noundef %1)
  %47 = add nsw i32 %.049, 1
  br label %75

48:                                               ; preds = %39, %42
  %.val2.i = load ptr, ptr %34, align 8
  %49 = getelementptr i8, ptr %34, i64 16
  %.val3.i = load i32, ptr %49, align 8
  %50 = getelementptr inbounds nuw i8, ptr %.val2.i, i64 224
  %51 = add nsw i32 %.val3.i, 1
  tail call fastcc void @Vec_IntFillExtra(ptr noundef nonnull %50, i32 noundef %51)
  %52 = getelementptr i8, ptr %.val2.i, i64 232
  %.val.i.i.i = load ptr, ptr %52, align 8
  %53 = sext i32 %.val3.i to i64
  %54 = getelementptr inbounds i32, ptr %.val.i.i.i, i64 %53
  %55 = load i32, ptr %54, align 4
  %.val.i41 = load ptr, ptr %34, align 8
  %56 = getelementptr inbounds nuw i8, ptr %.val.i41, i64 216
  %57 = load i32, ptr %56, align 8
  %.not45 = icmp eq i32 %55, %57
  br i1 %.not45, label %68, label %58

58:                                               ; preds = %48
  %59 = tail call ptr @Abc_ObjName(ptr noundef nonnull %28) #28
  %60 = getelementptr inbounds nuw i8, ptr %34, i64 8
  store ptr %59, ptr %60, align 8
  %.val39 = load ptr, ptr %34, align 8
  %.val40 = load i32, ptr %49, align 8
  %61 = getelementptr inbounds nuw i8, ptr %.val39, i64 216
  %62 = load i32, ptr %61, align 8
  %63 = getelementptr inbounds nuw i8, ptr %.val39, i64 224
  %64 = add nsw i32 %.val40, 1
  tail call fastcc void @Vec_IntFillExtra(ptr noundef nonnull %63, i32 noundef %64)
  %65 = getelementptr i8, ptr %.val39, i64 232
  %.val.i.i.i42 = load ptr, ptr %65, align 8
  %66 = sext i32 %.val40 to i64
  %67 = getelementptr inbounds i32, ptr %.val.i.i.i42, i64 %66
  store i32 %62, ptr %67, align 4
  br label %75

68:                                               ; preds = %48
  %69 = getelementptr inbounds nuw i8, ptr %34, i64 8
  %70 = load ptr, ptr %69, align 8
  %71 = tail call ptr @Abc_ObjName(ptr noundef nonnull %28) #28
  %72 = tail call i32 @strcmp(ptr noundef nonnull dereferenceable(1) %70, ptr noundef nonnull dereferenceable(1) %71) #31
  %.not33 = icmp eq i32 %72, 0
  br i1 %.not33, label %75, label %73

73:                                               ; preds = %68
  tail call void @Abc_NtkFixCoDriverProblem(ptr noundef nonnull %34, ptr noundef nonnull %28, i32 noundef %1)
  %74 = add nsw i32 %.049, 1
  br label %75

75:                                               ; preds = %68, %73, %58, %46, %37
  %.1 = phi i32 [ %38, %37 ], [ %47, %46 ], [ %74, %73 ], [ %.049, %68 ], [ %.049, %58 ]
  %indvars.iv.next = add nuw nsw i64 %indvars.iv, 1
  %.val37 = load ptr, ptr %23, align 8
  %76 = getelementptr i8, ptr %.val37, i64 4
  %.val37.val = load i32, ptr %76, align 4
  %77 = sext i32 %.val37.val to i64
  %78 = icmp slt i64 %indvars.iv.next, %77
  br i1 %78, label %.lr.ph, label %.critedge, !llvm.loop !52

.critedge:                                        ; preds = %75, %Abc_NtkIncrementTravId.exit
  %.0.lcssa = phi i32 [ 0, %Abc_NtkIncrementTravId.exit ], [ %.1, %75 ]
  ret i32 %.0.lcssa
}